target datalayout = "e-m:e-p270:32:32-p271:32:32-p272:64:64-i64:64-i128:128-f80:128-n8:16:32:64-S128"
target triple = "x86_64-pc-linux-gnu"

%class.XMark = type <{ ptr, ptr, [48 x i8], %class.XMarkStackAllocator, %class.XMarkStripeSet, %class.XMarkTerminate, i8, [7 x i8], i64, i64, i64, i64, i64, i64, i32, [4 x i8] }>
%class.XMarkStackAllocator = type { %class.XStackList, [56 x i8], %class.XMarkStackSpace }
%class.XStackList = type { ptr }
%class.XMarkStackSpace = type { %class.XLock, i64, i64, i64 }
%class.XLock = type { %class.PlatformMutex }
%class.PlatformMutex = type { %union.pthread_mutex_t }
%union.pthread_mutex_t = type { %struct.__pthread_mutex_s }
%struct.__pthread_mutex_s = type { i32, i32, i32, i32, i32, i16, i16, %struct.__pthread_internal_list }
%struct.__pthread_internal_list = type { ptr, ptr }
%class.XMarkStripeSet = type { i64, i64, [48 x i8], [16 x %class.XMarkStripe] }
%class.XMarkStripe = type { %class.XStackList.0, [56 x i8], %class.XStackList.0, [56 x i8] }
%class.XStackList.0 = type { ptr }
%class.XMarkTerminate = type { i32, [60 x i8], i32, i32, [56 x i8] }
%class.XThreadLocalData = type { i64, %class.XMarkThreadLocalStacks, ptr }
%class.XMarkThreadLocalStacks = type { ptr, [16 x ptr] }
%class.XMarkContext = type { [8 x i8], %class.XMarkCache, ptr, ptr, %"class.StringDedup::Requests" }
%class.XMarkCache = type { i64, [1024 x %class.XMarkCacheEntry] }
%class.XMarkCacheEntry = type { ptr, i32, i64 }
%"class.StringDedup::Requests" = type <{ ptr, ptr, i64, i8, [7 x i8] }>
%class.Thread = type { %class.ThreadShadow.base, i64, [43 x i64], ptr, ptr, i32, ptr, i64, i64, %class.ThreadLocalAllocBuffer, i64, %class.ThreadHeapSampler, %class.ThreadStatisticalInfo, %class.JfrThreadLocal, ptr, ptr, ptr, ptr, ptr, ptr, i64, i32, i32, ptr, i32, i32, i32, i32, i8, ptr }
%class.ThreadShadow.base = type <{ ptr, ptr, ptr, i32 }>
%class.ThreadLocalAllocBuffer = type <{ ptr, ptr, ptr, ptr, ptr, i64, i64, i64, i64, i32, i32, i32, i32, i64, %class.AdaptiveWeightedAverage, [4 x i8] }>
%class.AdaptiveWeightedAverage = type { float, i32, i32, i8, float }
%class.ThreadHeapSampler = type { i64 }
%class.ThreadStatisticalInfo = type { i64, i64 }
%class.JfrThreadLocal = type <{ ptr, ptr, ptr, ptr, ptr, ptr, ptr, ptr, ptr, ptr, %class.RefCountHandle, i64, i64, i64, i64, i64, i64, i64, i64, i64, i64, i64, i32, i32, i32, i16, i8, i8, i8, i8, i8, [5 x i8] }>
%class.RefCountHandle = type { ptr }

@_ZN6Thread12_thr_currentE = external thread_local global ptr, align 8
@_ZN7XThread10_worker_idE = external thread_local global i32, align 4

; Function Attrs: mustprogress nounwind uwtable
define linkonce_odr hidden noundef ptr @_ZN6Thread7gc_dataI16XThreadLocalDataEEPT_v(ptr noundef nonnull align 8 dereferenceable(888) %0) #1 comdat align 2 {
  %2 = alloca ptr, align 8
  store ptr %0, ptr %2, align 8
  %3 = load ptr, ptr %2, align 8
  %4 = getelementptr inbounds %class.Thread, ptr %3, i32 0, i32 2
  ret ptr %4
}

; Function Attrs: mustprogress nounwind uwtable
define linkonce_odr hidden noundef ptr @_ZN16XThreadLocalData4dataEP6Thread(ptr noundef %0) #1 comdat align 2 {
  %2 = alloca ptr, align 8
  store ptr %0, ptr %2, align 8
  %3 = load ptr, ptr %2, align 8
  %4 = call noundef ptr @_ZN6Thread7gc_dataI16XThreadLocalDataEEPT_v(ptr noundef nonnull align 8 dereferenceable(888) %3)
  ret ptr %4
}

; Function Attrs: mustprogress nounwind uwtable
define linkonce_odr hidden noundef ptr @_ZN6Thread15current_or_nullEv() #1 comdat align 2 {
  %1 = call align 8 ptr @llvm.threadlocal.address.p0(ptr align 8 @_ZN6Thread12_thr_currentE)
  %2 = load ptr, ptr %1, align 8
  ret ptr %2
}

; Function Attrs: mustprogress nounwind uwtable
define linkonce_odr hidden void @_ZN12XMarkContextD2Ev(ptr noundef nonnull align 8 dereferenceable(24640) %0) unnamed_addr #1 comdat align 2 {
  %2 = alloca ptr, align 8
  store ptr %0, ptr %2, align 8
  %3 = load ptr, ptr %2, align 8
  %4 = getelementptr inbounds %class.XMarkContext, ptr %3, i32 0, i32 4
  call void @_ZN11StringDedup8RequestsD1Ev(ptr noundef nonnull align 8 dereferenceable(25) %4) #11
  %5 = getelementptr inbounds %class.XMarkContext, ptr %3, i32 0, i32 1
  call void @_ZN10XMarkCacheD1Ev(ptr noundef nonnull align 8 dereferenceable(24584) %5) #11
  ret void
}

; Function Attrs: mustprogress nounwind uwtable
define linkonce_odr hidden void @_ZN12XMarkContextC2EmP11XMarkStripeP22XMarkThreadLocalStacks(ptr noundef nonnull align 8 dereferenceable(24640) %0, i64 noundef %1, ptr noundef %2, ptr noundef %3) unnamed_addr #1 comdat align 2 {
  %5 = alloca ptr, align 8
  %6 = alloca i64, align 8
  %7 = alloca ptr, align 8
  %8 = alloca ptr, align 8
  store ptr %0, ptr %5, align 8
  store i64 %1, ptr %6, align 8
  store ptr %2, ptr %7, align 8
  store ptr %3, ptr %8, align 8
  %9 = load ptr, ptr %5, align 8
  %10 = getelementptr inbounds %class.XMarkContext, ptr %9, i32 0, i32 1
  %11 = load i64, ptr %6, align 8
  call void @_ZN10XMarkCacheC1Em(ptr noundef nonnull align 8 dereferenceable(24584) %10, i64 noundef %11)
  %12 = getelementptr inbounds %class.XMarkContext, ptr %9, i32 0, i32 2
  %13 = load ptr, ptr %7, align 8
  store ptr %13, ptr %12, align 8
  %14 = getelementptr inbounds %class.XMarkContext, ptr %9, i32 0, i32 3
  %15 = load ptr, ptr %8, align 8
  store ptr %15, ptr %14, align 8
  %16 = getelementptr inbounds %class.XMarkContext, ptr %9, i32 0, i32 4
  call void @_ZN11StringDedup8RequestsC1Ev(ptr noundef nonnull align 8 dereferenceable(25) %16)
  ret void
}

; Function Attrs: mustprogress nounwind uwtable
define linkonce_odr hidden noundef i64 @_ZNK14XMarkStripeSet8nstripesEv(ptr noundef nonnull align 64 dereferenceable(2112) %0) #1 comdat align 2 {
  %2 = alloca ptr, align 8
  store ptr %0, ptr %2, align 8
  %3 = load ptr, ptr %2, align 8
  %4 = getelementptr inbounds %class.XMarkStripeSet, ptr %3, i32 0, i32 0
  %5 = load i64, ptr %4, align 64
  ret i64 %5
}

; Function Attrs: mustprogress nounwind uwtable
define linkonce_odr hidden noundef ptr @_ZN16XThreadLocalData6stacksEP6Thread(ptr noundef %0) #1 comdat align 2 {
  %2 = alloca ptr, align 8
  store ptr %0, ptr %2, align 8
  %3 = load ptr, ptr %2, align 8
  %4 = call noundef ptr @_ZN16XThreadLocalData4dataEP6Thread(ptr noundef %3)
  %5 = getelementptr inbounds %class.XThreadLocalData, ptr %4, i32 0, i32 1
  ret ptr %5
}

; Function Attrs: mustprogress nounwind uwtable
define linkonce_odr hidden noundef ptr @_ZN6Thread7currentEv() #1 comdat align 2 {
  %1 = alloca ptr, align 8
  %2 = call noundef ptr @_ZN6Thread15current_or_nullEv()
  store ptr %2, ptr %1, align 8
  %3 = load ptr, ptr %1, align 8
  ret ptr %3
}

; Function Attrs: mustprogress nounwind uwtable
define linkonce_odr hidden noundef i32 @_ZN7XThread9worker_idEv() #1 comdat align 2 {
  %1 = call align 4 ptr @llvm.threadlocal.address.p0(ptr align 4 @_ZN7XThread10_worker_idE)
  %2 = load i32, ptr %1, align 4
  ret i32 %2
}

; Function Attrs: mustprogress nounwind uwtable
define hidden void @_ZN5XMark4workEm(ptr noundef nonnull align 64 dereferenceable(2492) %0, i64 noundef %1) #1 align 2 {
  %3 = alloca ptr, align 8
  %4 = alloca i64, align 8
  %5 = alloca ptr, align 8
  %6 = alloca ptr, align 8
  %7 = alloca %class.XMarkContext, align 8
  store ptr %0, ptr %3, align 8
  store i64 %1, ptr %4, align 8
  %8 = load ptr, ptr %3, align 8
  %9 = getelementptr inbounds %class.XMark, ptr %8, i32 0, i32 4
  %10 = getelementptr inbounds %class.XMark, ptr %8, i32 0, i32 14
  %11 = load i32, ptr %10, align 8
  %12 = call noundef i32 @_ZN7XThread9worker_idEv()
  %13 = call noundef ptr @_ZN14XMarkStripeSet17stripe_for_workerEjj(ptr noundef nonnull align 64 dereferenceable(2112) %9, i32 noundef %11, i32 noundef %12)
  store ptr %13, ptr %5, align 8
  %14 = call noundef ptr @_ZN6Thread7currentEv()
  %15 = call noundef ptr @_ZN16XThreadLocalData6stacksEP6Thread(ptr noundef %14)
  store ptr %15, ptr %6, align 8
  %16 = getelementptr inbounds %class.XMark, ptr %8, i32 0, i32 4
  %17 = call noundef i64 @_ZNK14XMarkStripeSet8nstripesEv(ptr noundef nonnull align 64 dereferenceable(2112) %16)
  %18 = load ptr, ptr %5, align 8
  %19 = load ptr, ptr %6, align 8
  call void @_ZN12XMarkContextC2EmP11XMarkStripeP22XMarkThreadLocalStacks(ptr noundef nonnull align 8 dereferenceable(24640) %7, i64 noundef %17, ptr noundef %18, ptr noundef %19)
  %20 = load i64, ptr %4, align 8
  %21 = icmp eq i64 %20, 0
  br i1 %21, label %22, label %23

22:                                               ; preds = %2
  call void @_ZN5XMark20work_without_timeoutEP12XMarkContext(ptr noundef nonnull align 64 dereferenceable(2492) %8, ptr noundef %7)
  br label %25

23:                                               ; preds = %2
  %24 = load i64, ptr %4, align 8
  call void @_ZN5XMark17work_with_timeoutEP12XMarkContextm(ptr noundef nonnull align 64 dereferenceable(2492) %8, ptr noundef %7, i64 noundef %24)
  br label %25

25:                                               ; preds = %23, %22
  %26 = load ptr, ptr %6, align 8
  %27 = getelementptr inbounds %class.XMark, ptr %8, i32 0, i32 3
  %28 = getelementptr inbounds %class.XMark, ptr %8, i32 0, i32 4
  %29 = call noundef zeroext i1 @_ZN22XMarkThreadLocalStacks5flushEP19XMarkStackAllocatorP14XMarkStripeSet(ptr noundef nonnull align 8 dereferenceable(136) %26, ptr noundef %27, ptr noundef %28)
  %30 = load ptr, ptr %6, align 8
  %31 = getelementptr inbounds %class.XMark, ptr %8, i32 0, i32 3
  call void @_ZN22XMarkThreadLocalStacks4freeEP19XMarkStackAllocator(ptr noundef nonnull align 8 dereferenceable(136) %30, ptr noundef %31)
  call void @_ZN12XMarkContextD2Ev(ptr noundef nonnull align 8 dereferenceable(24640) %7) #11
  ret void
}