; Function Attrs: mustprogress nounwind uwtable
define hidden void @_ZN5XMark4workEm(ptr noundef nonnull align 64 dereferenceable(2492) %0, i64 noundef %1) local_unnamed_addr #0 align 2 {
  %3 = alloca %class.XMarkContext, align 8
  %4 = getelementptr inbounds i8, ptr %0, i64 192
  %5 = getelementptr inbounds i8, ptr %0, i64 2488
  %6 = load i32, ptr %5, align 8
  %7 = tail call align 4 ptr @llvm.threadlocal.address.p0(ptr align 4 @_ZN7XThread10_worker_idE)
  %8 = load i32, ptr %7, align 4
  %9 = tail call noundef ptr @_ZN14XMarkStripeSet17stripe_for_workerEjj(ptr noundef nonnull align 64 dereferenceable(2112) %4, i32 noundef %6, i32 noundef %8) #17
  %10 = tail call align 8 ptr @llvm.threadlocal.address.p0(ptr align 8 @_ZN6Thread12_thr_currentE)
  %11 = load ptr, ptr %10, align 8
  %12 = getelementptr inbounds i8, ptr %11, i64 48
  %13 = load i64, ptr %4, align 64
  %14 = getelementptr inbounds i8, ptr %3, i64 8
  call void @_ZN10XMarkCacheC1Em(ptr noundef nonnull align 8 dereferenceable(24584) %14, i64 noundef %13) #17
  %15 = getelementptr inbounds i8, ptr %3, i64 24592
  store ptr %9, ptr %15, align 8
  %16 = getelementptr inbounds i8, ptr %3, i64 24600
  store ptr %12, ptr %16, align 8
  %17 = getelementptr inbounds i8, ptr %3, i64 24608
  call void @_ZN11StringDedup8RequestsC1Ev(ptr noundef nonnull align 8 dereferenceable(25) %17) #17
  %18 = icmp eq i64 %1, 0
  br i1 %18, label %19, label %20

19:                                               ; preds = %2
  call void @_ZN5XMark20work_without_timeoutEP12XMarkContext(ptr noundef nonnull align 64 dereferenceable(2492) %0, ptr noundef nonnull %3)
  br label %21

20:                                               ; preds = %2
  call void @_ZN5XMark17work_with_timeoutEP12XMarkContextm(ptr noundef nonnull align 64 dereferenceable(2492) %0, ptr noundef nonnull %3, i64 noundef %1)
  br label %21

21:                                               ; preds = %20, %19
  %22 = getelementptr inbounds i8, ptr %0, i64 64
  %23 = call noundef zeroext i1 @_ZN22XMarkThreadLocalStacks5flushEP19XMarkStackAllocatorP14XMarkStripeSet(ptr noundef nonnull align 8 dereferenceable(136) %12, ptr noundef nonnull %22, ptr noundef nonnull %4) #17
  call void @_ZN22XMarkThreadLocalStacks4freeEP19XMarkStackAllocator(ptr noundef nonnull align 8 dereferenceable(136) %12, ptr noundef nonnull %22) #17
  call void @_ZN11StringDedup8RequestsD1Ev(ptr noundef nonnull align 8 dereferenceable(25) %17) #17
  call void @_ZN10XMarkCacheD1Ev(ptr noundef nonnull align 8 dereferenceable(24584) %14) #17
  ret void
}